; Function Attrs: nounwind uwtable
define noalias nonnull ptr @l_Lake_mkFacetJobConfig___rarg(ptr noundef %0, ptr noundef readnone captures(none) %1, ptr noundef readnone captures(none) %2, ptr noundef %3, ptr noundef %4, ptr noundef readnone captures(none) %5, ptr noundef readnone captures(none) %6, ptr noundef %7, i8 noundef zeroext %8) local_unnamed_addr #0 {
  tail call void @lean_inc_heartbeat() #5
  %10 = tail call noalias ptr @mi_malloc_small(i64 noundef 48) #5
  %11 = icmp eq ptr %10, null
  br i1 %11, label %12, label %lean_alloc_ctor.exit

12:                                               ; preds = %9
  tail call void @lean_internal_panic_out_of_memory() #6
  unreachable

lean_alloc_ctor.exit:                             ; preds = %9
  %13 = getelementptr inbounds nuw i8, ptr %10, i64 4
  %14 = getelementptr inbounds nuw i8, ptr %10, i64 40
  store i64 0, ptr %14, align 8, !tbaa !11
  store i32 1, ptr %10, align 4, !tbaa !8
  store i32 262192, ptr %13, align 4
  %15 = getelementptr inbounds nuw i8, ptr %10, i64 8
  store ptr %0, ptr %15, align 8, !tbaa !4
  %16 = getelementptr inbounds nuw i8, ptr %10, i64 16
  store ptr %7, ptr %16, align 8, !tbaa !4
  %17 = getelementptr inbounds nuw i8, ptr %10, i64 24
  store ptr %4, ptr %17, align 8, !tbaa !4
  %18 = getelementptr inbounds nuw i8, ptr %10, i64 32
  store ptr %3, ptr %18, align 8, !tbaa !4
  store i8 %8, ptr %14, align 1, !tbaa !17
  ret ptr %10
}